target datalayout = "e-m:e-p270:32:32-p271:32:32-p272:64:64-i64:64-i128:128-f80:128-n8:16:32:64-S128"
target triple = "x86_64-pc-linux-gnu"

%struct.text_buffer = type { ptr, i64, i64 }
%struct.node = type { i32, ptr, %union.anon }
%union.anon = type { %struct.anon }
%struct.anon = type { ptr, ptr }

; Function Attrs: nounwind uwtable
define internal i32 @textbuffer_ensure_capacity(ptr noundef %0, i64 noundef %1) #0 {
  %3 = alloca i32, align 4
  %4 = alloca ptr, align 8
  %5 = alloca i64, align 8
  %6 = alloca ptr, align 8
  %7 = alloca i32, align 4
  store ptr %0, ptr %4, align 8
  store i64 %1, ptr %5, align 8
  %8 = load ptr, ptr %4, align 8
  %9 = getelementptr inbounds %struct.text_buffer, ptr %8, i32 0, i32 1
  %10 = load i64, ptr %9, align 8
  %11 = load i64, ptr %5, align 8
  %12 = add i64 %10, %11
  %13 = load ptr, ptr %4, align 8
  %14 = getelementptr inbounds %struct.text_buffer, ptr %13, i32 0, i32 2
  %15 = load i64, ptr %14, align 8
  %16 = icmp ugt i64 %12, %15
  br i1 %16, label %17, label %59

17:                                               ; preds = %2
  %18 = load ptr, ptr %4, align 8
  %19 = getelementptr inbounds %struct.text_buffer, ptr %18, i32 0, i32 1
  %20 = load i64, ptr %19, align 8
  %21 = load i64, ptr %5, align 8
  %22 = add i64 %20, %21
  %23 = load ptr, ptr %4, align 8
  %24 = getelementptr inbounds %struct.text_buffer, ptr %23, i32 0, i32 2
  %25 = load i64, ptr %24, align 8
  %26 = add i64 %25, 4096
  %27 = icmp ugt i64 %22, %26
  br i1 %27, label %28, label %34

28:                                               ; preds = %17
  %29 = load ptr, ptr %4, align 8
  %30 = getelementptr inbounds %struct.text_buffer, ptr %29, i32 0, i32 1
  %31 = load i64, ptr %30, align 8
  %32 = load i64, ptr %5, align 8
  %33 = add i64 %31, %32
  br label %39

34:                                               ; preds = %17
  %35 = load ptr, ptr %4, align 8
  %36 = getelementptr inbounds %struct.text_buffer, ptr %35, i32 0, i32 2
  %37 = load i64, ptr %36, align 8
  %38 = add i64 %37, 4096
  br label %39

39:                                               ; preds = %34, %28
  %40 = phi i64 [ %33, %28 ], [ %38, %34 ]
  %41 = trunc i64 %40 to i32
  store i32 %41, ptr %7, align 4
  %42 = load ptr, ptr %4, align 8
  %43 = getelementptr inbounds %struct.text_buffer, ptr %42, i32 0, i32 0
  %44 = load ptr, ptr %43, align 8
  %45 = load i32, ptr %7, align 4
  %46 = zext i32 %45 to i64
  %47 = call ptr @cli_max_realloc(ptr noundef %44, i64 noundef %46)
  store ptr %47, ptr %6, align 8
  %48 = load ptr, ptr %6, align 8
  %49 = icmp ne ptr %48, null
  br i1 %49, label %51, label %50

50:                                               ; preds = %39
  store i32 -1, ptr %3, align 4
  br label %60

51:                                               ; preds = %39
  %52 = load i32, ptr %7, align 4
  %53 = zext i32 %52 to i64
  %54 = load ptr, ptr %4, align 8
  %55 = getelementptr inbounds %struct.text_buffer, ptr %54, i32 0, i32 2
  store i64 %53, ptr %55, align 8
  %56 = load ptr, ptr %6, align 8
  %57 = load ptr, ptr %4, align 8
  %58 = getelementptr inbounds %struct.text_buffer, ptr %57, i32 0, i32 0
  store ptr %56, ptr %58, align 8
  br label %59

59:                                               ; preds = %51, %2
  store i32 0, ptr %3, align 4
  br label %60

60:                                               ; preds = %59, %50
  %61 = load i32, ptr %3, align 4
  ret i32 %61
}

; Function Attrs: nounwind uwtable
define internal i32 @textbuffer_putc(ptr noundef %0, i8 noundef signext %1) #0 {
  %3 = alloca i32, align 4
  %4 = alloca ptr, align 8
  %5 = alloca i8, align 1
  store ptr %0, ptr %4, align 8
  store i8 %1, ptr %5, align 1
  %6 = load ptr, ptr %4, align 8
  %7 = call i32 @textbuffer_ensure_capacity(ptr noundef %6, i64 noundef 1)
  %8 = icmp eq i32 %7, -1
  br i1 %8, label %9, label %10

9:                                                ; preds = %2
  store i32 -1, ptr %3, align 4
  br label %20

10:                                               ; preds = %2
  %11 = load i8, ptr %5, align 1
  %12 = load ptr, ptr %4, align 8
  %13 = getelementptr inbounds %struct.text_buffer, ptr %12, i32 0, i32 0
  %14 = load ptr, ptr %13, align 8
  %15 = load ptr, ptr %4, align 8
  %16 = getelementptr inbounds %struct.text_buffer, ptr %15, i32 0, i32 1
  %17 = load i64, ptr %16, align 8
  %18 = add i64 %17, 1
  store i64 %18, ptr %16, align 8
  %19 = getelementptr inbounds i8, ptr %14, i64 %17
  store i8 %11, ptr %19, align 1
  store i32 0, ptr %3, align 4
  br label %20

20:                                               ; preds = %10, %9
  %21 = load i32, ptr %3, align 4
  ret i32 %21
}

; Function Attrs: nounwind uwtable
define internal i32 @build_suffixtree_ascend(ptr noundef %0, ptr noundef %1, ptr noundef %2, ptr noundef %3, ptr noundef %4, ptr noundef %5) #0 {
  %7 = alloca i32, align 4
  %8 = alloca ptr, align 8
  %9 = alloca ptr, align 8
  %10 = alloca ptr, align 8
  %11 = alloca ptr, align 8
  %12 = alloca ptr, align 8
  %13 = alloca ptr, align 8
  %14 = alloca i64, align 8
  %15 = alloca i64, align 8
  %16 = alloca ptr, align 8
  %17 = alloca i64, align 8
  store ptr %0, ptr %8, align 8
  store ptr %1, ptr %9, align 8
  store ptr %2, ptr %10, align 8
  store ptr %3, ptr %11, align 8
  store ptr %4, ptr %12, align 8
  store ptr %5, ptr %13, align 8
  br label %18

18:                                               ; preds = %191, %6
  %19 = load ptr, ptr %8, align 8
  %20 = icmp ne ptr %19, null
  br i1 %20, label %21, label %193

21:                                               ; preds = %18
  %22 = load ptr, ptr %8, align 8
  store ptr %22, ptr %16, align 8
  %23 = load ptr, ptr %8, align 8
  %24 = getelementptr inbounds %struct.node, ptr %23, i32 0, i32 0
  %25 = load i32, ptr %24, align 8
  switch i32 %25, label %191 [
    i32 0, label %26
    i32 4, label %43
    i32 5, label %52
    i32 1, label %145
    i32 2, label %170
    i32 3, label %174
  ]

26:                                               ; preds = %21
  %27 = load ptr, ptr %9, align 8
  %28 = call i32 @textbuffer_putc(ptr noundef %27, i8 noundef signext 0)
  %29 = load ptr, ptr %11, align 8
  %30 = load ptr, ptr %12, align 8
  %31 = load ptr, ptr %9, align 8
  %32 = getelementptr inbounds %struct.text_buffer, ptr %31, i32 0, i32 0
  %33 = load ptr, ptr %32, align 8
  %34 = load ptr, ptr %9, align 8
  %35 = getelementptr inbounds %struct.text_buffer, ptr %34, i32 0, i32 1
  %36 = load i64, ptr %35, align 8
  %37 = sub i64 %36, 1
  %38 = load ptr, ptr %13, align 8
  %39 = call i32 %29(ptr noundef %30, ptr noundef %33, i64 noundef %37, ptr noundef %38)
  %40 = icmp ne i32 %39, 0
  br i1 %40, label %41, label %42

41:                                               ; preds = %26
  store i32 20, ptr %7, align 4
  br label %194

42:                                               ; preds = %26
  store i32 0, ptr %7, align 4
  br label %194

43:                                               ; preds = %21
  %44 = load ptr, ptr %9, align 8
  %45 = load ptr, ptr %8, align 8
  %46 = getelementptr inbounds %struct.node, ptr %45, i32 0, i32 2
  %47 = load i8, ptr %46, align 8
  %48 = call i32 @textbuffer_putc(ptr noundef %44, i8 noundef signext %47)
  %49 = load ptr, ptr %8, align 8
  %50 = getelementptr inbounds %struct.node, ptr %49, i32 0, i32 1
  %51 = load ptr, ptr %50, align 8
  store ptr %51, ptr %8, align 8
  br label %191

52:                                               ; preds = %21
  store i64 0, ptr %15, align 8
  store i64 0, ptr %14, align 8
  br label %53

53:                                               ; preds = %75, %52
  %54 = load i64, ptr %14, align 8
  %55 = icmp ult i64 %54, 255
  br i1 %55, label %56, label %78

56:                                               ; preds = %53
  %57 = load ptr, ptr %8, align 8
  %58 = getelementptr inbounds %struct.node, ptr %57, i32 0, i32 2
  %59 = load ptr, ptr %58, align 8
  %60 = load i64, ptr %14, align 8
  %61 = lshr i64 %60, 3
  %62 = getelementptr inbounds i8, ptr %59, i64 %61
  %63 = load i8, ptr %62, align 1
  %64 = zext i8 %63 to i32
  %65 = load i64, ptr %14, align 8
  %66 = and i64 %65, 7
  %67 = trunc i64 %66 to i32
  %68 = shl i32 1, %67
  %69 = and i32 %64, %68
  %70 = icmp ne i32 %69, 0
  br i1 %70, label %71, label %74

71:                                               ; preds = %56
  %72 = load i64, ptr %15, align 8
  %73 = add i64 %72, 1
  store i64 %73, ptr %15, align 8
  br label %74

74:                                               ; preds = %71, %56
  br label %75

75:                                               ; preds = %74
  %76 = load i64, ptr %14, align 8
  %77 = add i64 %76, 1
  store i64 %77, ptr %14, align 8
  br label %53

78:                                               ; preds = %53
  %79 = load i64, ptr %15, align 8
  %80 = icmp ugt i64 %79, 16
  br i1 %80, label %81, label %98

81:                                               ; preds = %78
  %82 = load ptr, ptr %9, align 8
  %83 = call i32 @textbuffer_putc(ptr noundef %82, i8 noundef signext 0)
  %84 = load ptr, ptr %11, align 8
  %85 = load ptr, ptr %12, align 8
  %86 = load ptr, ptr %9, align 8
  %87 = getelementptr inbounds %struct.text_buffer, ptr %86, i32 0, i32 0
  %88 = load ptr, ptr %87, align 8
  %89 = load ptr, ptr %9, align 8
  %90 = getelementptr inbounds %struct.text_buffer, ptr %89, i32 0, i32 1
  %91 = load i64, ptr %90, align 8
  %92 = sub i64 %91, 1
  %93 = load ptr, ptr %13, align 8
  %94 = call i32 %84(ptr noundef %85, ptr noundef %88, i64 noundef %92, ptr noundef %93)
  %95 = icmp ne i32 %94, 0
  br i1 %95, label %96, label %97

96:                                               ; preds = %81
  store i32 20, ptr %7, align 4
  br label %194

97:                                               ; preds = %81
  store i32 0, ptr %7, align 4
  br label %194

98:                                               ; preds = %78
  store i64 0, ptr %14, align 8
  br label %99

99:                                               ; preds = %141, %98
  %100 = load i64, ptr %14, align 8
  %101 = icmp ult i64 %100, 255
  br i1 %101, label %102, label %144

102:                                              ; preds = %99
  %103 = load ptr, ptr %8, align 8
  %104 = getelementptr inbounds %struct.node, ptr %103, i32 0, i32 2
  %105 = load ptr, ptr %104, align 8
  %106 = load i64, ptr %14, align 8
  %107 = lshr i64 %106, 3
  %108 = getelementptr inbounds i8, ptr %105, i64 %107
  %109 = load i8, ptr %108, align 1
  %110 = zext i8 %109 to i32
  %111 = load i64, ptr %14, align 8
  %112 = and i64 %111, 7
  %113 = trunc i64 %112 to i32
  %114 = shl i32 1, %113
  %115 = and i32 %110, %114
  %116 = icmp ne i32 %115, 0
  br i1 %116, label %117, label %140

117:                                              ; preds = %102
  %118 = load ptr, ptr %9, align 8
  %119 = getelementptr inbounds %struct.text_buffer, ptr %118, i32 0, i32 1
  %120 = load i64, ptr %119, align 8
  store i64 %120, ptr %17, align 8
  %121 = load ptr, ptr %9, align 8
  %122 = load i64, ptr %14, align 8
  %123 = trunc i64 %122 to i8
  %124 = call i32 @textbuffer_putc(ptr noundef %121, i8 noundef signext %123)
  %125 = load ptr, ptr %8, align 8
  %126 = getelementptr inbounds %struct.node, ptr %125, i32 0, i32 1
  %127 = load ptr, ptr %126, align 8
  %128 = load ptr, ptr %9, align 8
  %129 = load ptr, ptr %8, align 8
  %130 = load ptr, ptr %11, align 8
  %131 = load ptr, ptr %12, align 8
  %132 = load ptr, ptr %13, align 8
  %133 = call i32 @build_suffixtree_ascend(ptr noundef %127, ptr noundef %128, ptr noundef %129, ptr noundef %130, ptr noundef %131, ptr noundef %132)
  %134 = icmp ne i32 %133, 0
  br i1 %134, label %135, label %136

135:                                              ; preds = %117
  store i32 20, ptr %7, align 4
  br label %194

136:                                              ; preds = %117
  %137 = load i64, ptr %17, align 8
  %138 = load ptr, ptr %9, align 8
  %139 = getelementptr inbounds %struct.text_buffer, ptr %138, i32 0, i32 1
  store i64 %137, ptr %139, align 8
  br label %140

140:                                              ; preds = %136, %102
  br label %141

141:                                              ; preds = %140
  %142 = load i64, ptr %14, align 8
  %143 = add i64 %142, 1
  store i64 %143, ptr %14, align 8
  br label %99

144:                                              ; preds = %99
  store i32 0, ptr %7, align 4
  br label %194

145:                                              ; preds = %21
  %146 = load ptr, ptr %10, align 8
  %147 = load ptr, ptr %8, align 8
  %148 = getelementptr inbounds %struct.node, ptr %147, i32 0, i32 2
  %149 = getelementptr inbounds %struct.anon, ptr %148, i32 0, i32 0
  %150 = load ptr, ptr %149, align 8
  %151 = icmp ne ptr %146, %150
  br i1 %151, label %152, label %165

152:                                              ; preds = %145
  %153 = load ptr, ptr %8, align 8
  %154 = getelementptr inbounds %struct.node, ptr %153, i32 0, i32 2
  %155 = getelementptr inbounds %struct.anon, ptr %154, i32 0, i32 0
  %156 = load ptr, ptr %155, align 8
  %157 = load ptr, ptr %9, align 8
  %158 = load ptr, ptr %11, align 8
  %159 = load ptr, ptr %12, align 8
  %160 = load ptr, ptr %13, align 8
  %161 = call i32 @build_suffixtree_descend(ptr noundef %156, ptr noundef %157, ptr noundef %158, ptr noundef %159, ptr noundef %160)
  %162 = icmp ne i32 %161, 0
  br i1 %162, label %163, label %164

163:                                              ; preds = %152
  store i32 20, ptr %7, align 4
  br label %194

164:                                              ; preds = %152
  store i32 0, ptr %7, align 4
  br label %194

165:                                              ; preds = %145
  %166 = load ptr, ptr %8, align 8
  %167 = getelementptr inbounds %struct.node, ptr %166, i32 0, i32 1
  %168 = load ptr, ptr %167, align 8
  store ptr %168, ptr %8, align 8
  br label %169

169:                                              ; preds = %165
  br label %191

170:                                              ; preds = %21
  %171 = load ptr, ptr %8, align 8
  %172 = getelementptr inbounds %struct.node, ptr %171, i32 0, i32 1
  %173 = load ptr, ptr %172, align 8
  store ptr %173, ptr %8, align 8
  br label %191

174:                                              ; preds = %21
  %175 = load ptr, ptr %9, align 8
  %176 = call i32 @textbuffer_putc(ptr noundef %175, i8 noundef signext 0)
  %177 = load ptr, ptr %11, align 8
  %178 = load ptr, ptr %12, align 8
  %179 = load ptr, ptr %9, align 8
  %180 = getelementptr inbounds %struct.text_buffer, ptr %179, i32 0, i32 0
  %181 = load ptr, ptr %180, align 8
  %182 = load ptr, ptr %9, align 8
  %183 = getelementptr inbounds %struct.text_buffer, ptr %182, i32 0, i32 1
  %184 = load i64, ptr %183, align 8
  %185 = sub i64 %184, 1
  %186 = load ptr, ptr %13, align 8
  %187 = call i32 %177(ptr noundef %178, ptr noundef %181, i64 noundef %185, ptr noundef %186)
  %188 = icmp ne i32 %187, 0
  br i1 %188, label %189, label %190

189:                                              ; preds = %174
  store i32 20, ptr %7, align 4
  br label %194

190:                                              ; preds = %174
  store i32 0, ptr %7, align 4
  br label %194

191:                                              ; preds = %170, %169, %43, %21
  %192 = load ptr, ptr %16, align 8
  store ptr %192, ptr %10, align 8
  br label %18

193:                                              ; preds = %18
  store i32 0, ptr %7, align 4
  br label %194

194:                                              ; preds = %193, %190, %189, %164, %163, %144, %135, %97, %96, %42, %41
  %195 = load i32, ptr %7, align 4
  ret i32 %195
}