; Function Attrs: nounwind uwtable
define internal fastcc i32 @build_suffixtree_ascend(ptr noundef %0, ptr nocapture noundef %1, ptr noundef readnone %2, ptr nocapture noundef readonly %3, ptr noundef %4, ptr noundef %5) unnamed_addr #0 {
  %.not113 = icmp eq ptr %0, null
  br i1 %.not113, label %.loopexit, label %.lr.ph

.lr.ph:                                           ; preds = %6
  %7 = getelementptr inbounds i8, ptr %1, i64 8
  %8 = getelementptr inbounds i8, ptr %1, i64 16
  br label %9

9:                                                ; preds = %.lr.ph, %134
  %.057115 = phi ptr [ %0, %.lr.ph ], [ %.1, %134 ]
  %.062114 = phi ptr [ %2, %.lr.ph ], [ %.057115, %134 ]
  %10 = load i32, ptr %.057115, align 8
  switch i32 %10, label %134 [
    i32 0, label %13
    i32 4, label %31
    i32 5, label %.preheader107
    i32 1, label %109
    i32 2, label %.sink.split
    i32 3, label %114
  ]

.preheader107:                                    ; preds = %9
  %11 = getelementptr inbounds i8, ptr %.057115, i64 16
  %12 = load ptr, ptr %11, align 8
  br label %47

13:                                               ; preds = %9
  %14 = load i64, ptr %7, align 8
  %15 = add i64 %14, 1
  %16 = load i64, ptr %8, align 8
  %17 = icmp ugt i64 %15, %16
  %.pre.i = load ptr, ptr %1, align 8
  br i1 %17, label %18, label %23

18:                                               ; preds = %13
  %19 = add i64 %16, 4096
  %..i.i = tail call i64 @llvm.umax.i64(i64 %15, i64 %19)
  %20 = and i64 %..i.i, 4294967295
  %21 = tail call ptr @cli_max_realloc(ptr noundef %.pre.i, i64 noundef %20) #8
  %.not.i.i = icmp eq ptr %21, null
  br i1 %.not.i.i, label %textbuffer_putc.exit, label %22

22:                                               ; preds = %18
  store i64 %20, ptr %8, align 8
  store ptr %21, ptr %1, align 8
  %.pre5.i = load i64, ptr %7, align 8
  %.pre6.i = add i64 %.pre5.i, 1
  br label %23

23:                                               ; preds = %22, %13
  %.pre-phi.i = phi i64 [ %.pre6.i, %22 ], [ %15, %13 ]
  %24 = phi i64 [ %.pre5.i, %22 ], [ %14, %13 ]
  %25 = phi ptr [ %21, %22 ], [ %.pre.i, %13 ]
  store i64 %.pre-phi.i, ptr %7, align 8
  %26 = getelementptr inbounds i8, ptr %25, i64 %24
  store i8 0, ptr %26, align 1
  br label %textbuffer_putc.exit

textbuffer_putc.exit:                             ; preds = %18, %23
  %27 = load ptr, ptr %1, align 8
  %28 = load i64, ptr %7, align 8
  %29 = add i64 %28, -1
  %30 = tail call i32 %3(ptr noundef %4, ptr noundef %27, i64 noundef %29, ptr noundef %5) #8
  %.not71 = icmp eq i32 %30, 0
  %. = select i1 %.not71, i32 0, i32 20
  br label %.loopexit

31:                                               ; preds = %9
  %32 = getelementptr inbounds i8, ptr %.057115, i64 16
  %33 = load i8, ptr %32, align 8
  %34 = load i64, ptr %7, align 8
  %35 = add i64 %34, 1
  %36 = load i64, ptr %8, align 8
  %37 = icmp ugt i64 %35, %36
  %.pre.i75 = load ptr, ptr %1, align 8
  br i1 %37, label %38, label %43

38:                                               ; preds = %31
  %39 = add i64 %36, 4096
  %..i.i78 = tail call i64 @llvm.umax.i64(i64 %35, i64 %39)
  %40 = and i64 %..i.i78, 4294967295
  %41 = tail call ptr @cli_max_realloc(ptr noundef %.pre.i75, i64 noundef %40) #8
  %.not.i.i79 = icmp eq ptr %41, null
  br i1 %.not.i.i79, label %.sink.split, label %42

42:                                               ; preds = %38
  store i64 %40, ptr %8, align 8
  store ptr %41, ptr %1, align 8
  %.pre5.i80 = load i64, ptr %7, align 8
  %.pre6.i81 = add i64 %.pre5.i80, 1
  br label %43

43:                                               ; preds = %42, %31
  %.pre-phi.i76 = phi i64 [ %.pre6.i81, %42 ], [ %35, %31 ]
  %44 = phi i64 [ %.pre5.i80, %42 ], [ %34, %31 ]
  %45 = phi ptr [ %41, %42 ], [ %.pre.i75, %31 ]
  store i64 %.pre-phi.i76, ptr %7, align 8
  %46 = getelementptr inbounds i8, ptr %45, i64 %44
  store i8 %33, ptr %46, align 1
  br label %.sink.split

47:                                               ; preds = %.preheader107, %47
  %.058117 = phi i64 [ 0, %.preheader107 ], [ %spec.select, %47 ]
  %.060116 = phi i64 [ 0, %.preheader107 ], [ %57, %47 ]
  %48 = lshr i64 %.060116, 3
  %49 = getelementptr inbounds i8, ptr %12, i64 %48
  %50 = load i8, ptr %49, align 1
  %51 = zext i8 %50 to i32
  %52 = trunc nuw i64 %.060116 to i32
  %53 = and i32 %52, 7
  %54 = shl nuw nsw i32 1, %53
  %55 = and i32 %54, %51
  %.not70 = icmp ne i32 %55, 0
  %56 = zext i1 %.not70 to i64
  %spec.select = add i64 %.058117, %56
  %57 = add nuw nsw i64 %.060116, 1
  %exitcond.not = icmp eq i64 %57, 255
  br i1 %exitcond.not, label %58, label %47

58:                                               ; preds = %47
  %59 = icmp ugt i64 %spec.select, 16
  br i1 %59, label %61, label %.preheader

.preheader:                                       ; preds = %58
  %60 = getelementptr inbounds i8, ptr %.057115, i64 8
  br label %79

61:                                               ; preds = %58
  %62 = load i64, ptr %7, align 8
  %63 = add i64 %62, 1
  %64 = load i64, ptr %8, align 8
  %65 = icmp ugt i64 %63, %64
  %.pre.i83 = load ptr, ptr %1, align 8
  br i1 %65, label %66, label %71

66:                                               ; preds = %61
  %67 = add i64 %64, 4096
  %..i.i86 = tail call i64 @llvm.umax.i64(i64 %63, i64 %67)
  %68 = and i64 %..i.i86, 4294967295
  %69 = tail call ptr @cli_max_realloc(ptr noundef %.pre.i83, i64 noundef %68) #8
  %.not.i.i87 = icmp eq ptr %69, null
  br i1 %.not.i.i87, label %textbuffer_putc.exit90, label %70

70:                                               ; preds = %66
  store i64 %68, ptr %8, align 8
  store ptr %69, ptr %1, align 8
  %.pre5.i88 = load i64, ptr %7, align 8
  %.pre6.i89 = add i64 %.pre5.i88, 1
  br label %71

71:                                               ; preds = %70, %61
  %.pre-phi.i84 = phi i64 [ %.pre6.i89, %70 ], [ %63, %61 ]
  %72 = phi i64 [ %.pre5.i88, %70 ], [ %62, %61 ]
  %73 = phi ptr [ %69, %70 ], [ %.pre.i83, %61 ]
  store i64 %.pre-phi.i84, ptr %7, align 8
  %74 = getelementptr inbounds i8, ptr %73, i64 %72
  store i8 0, ptr %74, align 1
  br label %textbuffer_putc.exit90

textbuffer_putc.exit90:                           ; preds = %66, %71
  %75 = load ptr, ptr %1, align 8
  %76 = load i64, ptr %7, align 8
  %77 = add i64 %76, -1
  %78 = tail call i32 %3(ptr noundef %4, ptr noundef %75, i64 noundef %77, ptr noundef %5) #8
  %.not69 = icmp eq i32 %78, 0
  %.72 = select i1 %.not69, i32 0, i32 20
  br label %.loopexit

79:                                               ; preds = %.preheader, %107
  %.161118 = phi i64 [ 0, %.preheader ], [ %108, %107 ]
  %80 = load ptr, ptr %11, align 8
  %81 = lshr i64 %.161118, 3
  %82 = getelementptr inbounds i8, ptr %80, i64 %81
  %83 = load i8, ptr %82, align 1
  %84 = zext i8 %83 to i32
  %85 = trunc nuw i64 %.161118 to i32
  %86 = and i32 %85, 7
  %87 = shl nuw nsw i32 1, %86
  %88 = and i32 %87, %84
  %.not67 = icmp eq i32 %88, 0
  br i1 %.not67, label %107, label %89

89:                                               ; preds = %79
  %90 = load i64, ptr %7, align 8
  %91 = trunc nuw i64 %.161118 to i8
  %92 = add i64 %90, 1
  %93 = load i64, ptr %8, align 8
  %94 = icmp ugt i64 %92, %93
  %.pre.i91 = load ptr, ptr %1, align 8
  br i1 %94, label %95, label %100

95:                                               ; preds = %89
  %96 = add i64 %93, 4096
  %..i.i94 = tail call i64 @llvm.umax.i64(i64 %92, i64 %96)
  %97 = and i64 %..i.i94, 4294967295
  %98 = tail call ptr @cli_max_realloc(ptr noundef %.pre.i91, i64 noundef %97) #8
  %.not.i.i95 = icmp eq ptr %98, null
  br i1 %.not.i.i95, label %textbuffer_putc.exit98, label %99

99:                                               ; preds = %95
  store i64 %97, ptr %8, align 8
  store ptr %98, ptr %1, align 8
  %.pre5.i96 = load i64, ptr %7, align 8
  %.pre6.i97 = add i64 %.pre5.i96, 1
  br label %100

100:                                              ; preds = %99, %89
  %.pre-phi.i92 = phi i64 [ %.pre6.i97, %99 ], [ %92, %89 ]
  %101 = phi i64 [ %.pre5.i96, %99 ], [ %90, %89 ]
  %102 = phi ptr [ %98, %99 ], [ %.pre.i91, %89 ]
  store i64 %.pre-phi.i92, ptr %7, align 8
  %103 = getelementptr inbounds i8, ptr %102, i64 %101
  store i8 %91, ptr %103, align 1
  br label %textbuffer_putc.exit98

textbuffer_putc.exit98:                           ; preds = %95, %100
  %104 = load ptr, ptr %60, align 8
  %105 = tail call fastcc i32 @build_suffixtree_ascend(ptr noundef %104, ptr noundef nonnull %1, ptr noundef nonnull %.057115, ptr noundef %3, ptr noundef %4, ptr noundef %5), !range !4
  %.not68 = icmp eq i32 %105, 0
  br i1 %.not68, label %106, label %.loopexit

106:                                              ; preds = %textbuffer_putc.exit98
  store i64 %90, ptr %7, align 8
  br label %107

107:                                              ; preds = %79, %106
  %108 = add nuw nsw i64 %.161118, 1
  %exitcond124.not = icmp eq i64 %108, 255
  br i1 %exitcond124.not, label %.loopexit, label %79

109:                                              ; preds = %9
  %110 = getelementptr inbounds i8, ptr %.057115, i64 16
  %111 = load ptr, ptr %110, align 8
  %.not65 = icmp eq ptr %.062114, %111
  br i1 %.not65, label %.sink.split, label %112

112:                                              ; preds = %109
  %113 = tail call fastcc i32 @build_suffixtree_descend(ptr noundef %111, ptr noundef %1, ptr noundef %3, ptr noundef %4, ptr noundef %5), !range !4
  %.not66 = icmp eq i32 %113, 0
  %.73 = select i1 %.not66, i32 0, i32 20
  br label %.loopexit

114:                                              ; preds = %9
  %115 = load i64, ptr %7, align 8
  %116 = add i64 %115, 1
  %117 = load i64, ptr %8, align 8
  %118 = icmp ugt i64 %116, %117
  %.pre.i99 = load ptr, ptr %1, align 8
  br i1 %118, label %119, label %124

119:                                              ; preds = %114
  %120 = add i64 %117, 4096
  %..i.i102 = tail call i64 @llvm.umax.i64(i64 %116, i64 %120)
  %121 = and i64 %..i.i102, 4294967295
  %122 = tail call ptr @cli_max_realloc(ptr noundef %.pre.i99, i64 noundef %121) #8
  %.not.i.i103 = icmp eq ptr %122, null
  br i1 %.not.i.i103, label %textbuffer_putc.exit106, label %123

123:                                              ; preds = %119
  store i64 %121, ptr %8, align 8
  store ptr %122, ptr %1, align 8
  %.pre5.i104 = load i64, ptr %7, align 8
  %.pre6.i105 = add i64 %.pre5.i104, 1
  br label %124

124:                                              ; preds = %123, %114
  %.pre-phi.i100 = phi i64 [ %.pre6.i105, %123 ], [ %116, %114 ]
  %125 = phi i64 [ %.pre5.i104, %123 ], [ %115, %114 ]
  %126 = phi ptr [ %122, %123 ], [ %.pre.i99, %114 ]
  store i64 %.pre-phi.i100, ptr %7, align 8
  %127 = getelementptr inbounds i8, ptr %126, i64 %125
  store i8 0, ptr %127, align 1
  br label %textbuffer_putc.exit106

textbuffer_putc.exit106:                          ; preds = %119, %124
  %128 = load ptr, ptr %1, align 8
  %129 = load i64, ptr %7, align 8
  %130 = add i64 %129, -1
  %131 = tail call i32 %3(ptr noundef %4, ptr noundef %128, i64 noundef %130, ptr noundef %5) #8
  %.not64 = icmp eq i32 %131, 0
  %.74 = select i1 %.not64, i32 0, i32 20
  br label %.loopexit

.sink.split:                                      ; preds = %9, %109, %43, %38
  %132 = getelementptr inbounds i8, ptr %.057115, i64 8
  %133 = load ptr, ptr %132, align 8
  br label %134

134:                                              ; preds = %.sink.split, %9
  %.1 = phi ptr [ %.057115, %9 ], [ %133, %.sink.split ]
  %.not = icmp eq ptr %.1, null
  br i1 %.not, label %.loopexit, label %9

.loopexit:                                        ; preds = %134, %107, %textbuffer_putc.exit98, %6, %textbuffer_putc.exit106, %112, %textbuffer_putc.exit90, %textbuffer_putc.exit
  %.0 = phi i32 [ %., %textbuffer_putc.exit ], [ %.72, %textbuffer_putc.exit90 ], [ %.73, %112 ], [ %.74, %textbuffer_putc.exit106 ], [ 0, %6 ], [ 0, %107 ], [ 20, %textbuffer_putc.exit98 ], [ 0, %134 ]
  ret i32 %.0
}